target datalayout = "e-m:e-p270:32:32-p271:32:32-p272:64:64-i64:64-i128:128-f80:128-n8:16:32:64-S128"
target triple = "x86_64-unknown-linux-gnu"

%"class.icu_75::LocaleBuilder" = type { %"class.icu_75::UObject", i32, [9 x i8], [5 x i8], [4 x i8], ptr, ptr }
%"class.icu_75::UObject" = type { ptr }
%"class.icu_75::LocalPointer" = type { %"class.icu_75::LocalPointerBase" }
%"class.icu_75::LocalPointerBase" = type { ptr }

; Function Attrs: mustprogress nounwind uwtable
define linkonce_odr void @_ZN6icu_7516LocalPointerBaseINS_17StringEnumerationEED2Ev(ptr noundef nonnull align 8 dereferenceable(8) %this) unnamed_addr #0 comdat align 2 {
entry:
  %this.addr = alloca ptr, align 8
  store ptr %this, ptr %this.addr, align 8
  ret void
}

; Function Attrs: mustprogress nounwind uwtable
define linkonce_odr void @_ZN6icu_7516LocalPointerBaseINS_17StringEnumerationEEC2EPS1_(ptr noundef nonnull align 8 dereferenceable(8) %this, ptr noundef %p) unnamed_addr #0 comdat align 2 {
entry:
  %this.addr = alloca ptr, align 8
  %p.addr = alloca ptr, align 8
  store ptr %this, ptr %this.addr, align 8
  store ptr %p, ptr %p.addr, align 8
  %this1 = load ptr, ptr %this.addr, align 8
  %ptr = getelementptr inbounds %"class.icu_75::LocalPointerBase", ptr %this1, i32 0, i32 0
  %0 = load ptr, ptr %p.addr, align 8
  store ptr %0, ptr %ptr, align 8
  ret void
}

; Function Attrs: mustprogress nounwind uwtable
define linkonce_odr noundef ptr @_ZNK6icu_7516LocalPointerBaseINS_17StringEnumerationEE8getAliasEv(ptr noundef nonnull align 8 dereferenceable(8) %this) #0 comdat align 2 {
entry:
  %this.addr = alloca ptr, align 8
  store ptr %this, ptr %this.addr, align 8
  %this1 = load ptr, ptr %this.addr, align 8
  %ptr = getelementptr inbounds %"class.icu_75::LocalPointerBase", ptr %this1, i32 0, i32 0
  %0 = load ptr, ptr %ptr, align 8
  ret ptr %0
}

; Function Attrs: mustprogress nounwind uwtable
define linkonce_odr void @_ZN6icu_7512LocalPointerINS_17StringEnumerationEED2Ev(ptr noundef nonnull align 8 dereferenceable(8) %this) unnamed_addr #0 comdat align 2 {
entry:
  %this.addr = alloca ptr, align 8
  store ptr %this, ptr %this.addr, align 8
  %this1 = load ptr, ptr %this.addr, align 8
  %ptr = getelementptr inbounds %"class.icu_75::LocalPointerBase", ptr %this1, i32 0, i32 0
  %0 = load ptr, ptr %ptr, align 8
  %isnull = icmp eq ptr %0, null
  br i1 %isnull, label %delete.end, label %delete.notnull

delete.notnull:                                   ; preds = %entry
  %vtable = load ptr, ptr %0, align 8
  %vfn = getelementptr inbounds ptr, ptr %vtable, i64 1
  %1 = load ptr, ptr %vfn, align 8
  call void %1(ptr noundef nonnull align 8 dereferenceable(116) %0) #9
  br label %delete.end

delete.end:                                       ; preds = %delete.notnull, %entry
  call void @_ZN6icu_7516LocalPointerBaseINS_17StringEnumerationEED2Ev(ptr noundef nonnull align 8 dereferenceable(8) %this1) #9
  ret void
}

; Function Attrs: mustprogress nounwind uwtable
define linkonce_odr noundef ptr @_ZNK6icu_7516LocalPointerBaseINS_17StringEnumerationEEptEv(ptr noundef nonnull align 8 dereferenceable(8) %this) #0 comdat align 2 {
entry:
  %this.addr = alloca ptr, align 8
  store ptr %this, ptr %this.addr, align 8
  %this1 = load ptr, ptr %this.addr, align 8
  %ptr = getelementptr inbounds %"class.icu_75::LocalPointerBase", ptr %this1, i32 0, i32 0
  %0 = load ptr, ptr %ptr, align 8
  ret ptr %0
}

; Function Attrs: mustprogress nounwind uwtable
define linkonce_odr noundef signext i8 @_ZNK6icu_7516LocalPointerBaseINS_17StringEnumerationEE6isNullEv(ptr noundef nonnull align 8 dereferenceable(8) %this) #0 comdat align 2 {
entry:
  %this.addr = alloca ptr, align 8
  store ptr %this, ptr %this.addr, align 8
  %this1 = load ptr, ptr %this.addr, align 8
  %ptr = getelementptr inbounds %"class.icu_75::LocalPointerBase", ptr %this1, i32 0, i32 0
  %0 = load ptr, ptr %ptr, align 8
  %cmp = icmp eq ptr %0, null
  %conv = zext i1 %cmp to i8
  ret i8 %conv
}

; Function Attrs: mustprogress uwtable
define linkonce_odr void @_ZN6icu_7512LocalPointerINS_17StringEnumerationEEC2EPS1_(ptr noundef nonnull align 8 dereferenceable(8) %this, ptr noundef %p) unnamed_addr #1 comdat align 2 {
entry:
  %this.addr = alloca ptr, align 8
  %p.addr = alloca ptr, align 8
  store ptr %this, ptr %this.addr, align 8
  store ptr %p, ptr %p.addr, align 8
  %this1 = load ptr, ptr %this.addr, align 8
  %0 = load ptr, ptr %p.addr, align 8
  call void @_ZN6icu_7516LocalPointerBaseINS_17StringEnumerationEEC2EPS1_(ptr noundef nonnull align 8 dereferenceable(8) %this1, ptr noundef %0)
  ret void
}

; Function Attrs: mustprogress nounwind uwtable
define internal noundef signext i8 @_ZL9U_FAILURE10UErrorCode(i32 noundef %code) #0 {
entry:
  %code.addr = alloca i32, align 4
  store i32 %code, ptr %code.addr, align 4
  %0 = load i32, ptr %code.addr, align 4
  %cmp = icmp sgt i32 %0, 0
  %conv = zext i1 %cmp to i8
  ret i8 %conv
}

; Function Attrs: mustprogress uwtable
define void @_ZN6icu_7513LocaleBuilder18copyExtensionsFromERKNS_6LocaleER10UErrorCode(ptr noundef nonnull align 8 dereferenceable(48) %this, ptr noundef nonnull align 8 dereferenceable(217) %src, ptr noundef nonnull align 4 dereferenceable(4) %errorCode) #1 align 2 personality ptr @__gxx_personality_v0 {
entry:
  %this.addr = alloca ptr, align 8
  %src.addr = alloca ptr, align 8
  %errorCode.addr = alloca ptr, align 8
  %keywords = alloca %"class.icu_75::LocalPointer", align 8
  %exn.slot = alloca ptr, align 8
  %ehselector.slot = alloca i32, align 4
  %cleanup.dest.slot = alloca i32, align 4
  store ptr %this, ptr %this.addr, align 8
  store ptr %src, ptr %src.addr, align 8
  store ptr %errorCode, ptr %errorCode.addr, align 8
  %this1 = load ptr, ptr %this.addr, align 8
  %0 = load ptr, ptr %errorCode.addr, align 8
  %1 = load i32, ptr %0, align 4
  %call = call noundef signext i8 @_ZL9U_FAILURE10UErrorCode(i32 noundef %1)
  %tobool = icmp ne i8 %call, 0
  br i1 %tobool, label %if.then, label %if.end

if.then:                                          ; preds = %entry
  br label %cleanup.cont

if.end:                                           ; preds = %entry
  %2 = load ptr, ptr %src.addr, align 8
  %3 = load ptr, ptr %errorCode.addr, align 8
  %call2 = call noundef ptr @_ZNK6icu_756Locale14createKeywordsER10UErrorCode(ptr noundef nonnull align 8 dereferenceable(217) %2, ptr noundef nonnull align 4 dereferenceable(4) %3)
  call void @_ZN6icu_7512LocalPointerINS_17StringEnumerationEEC2EPS1_(ptr noundef nonnull align 8 dereferenceable(8) %keywords, ptr noundef %call2)
  %4 = load ptr, ptr %errorCode.addr, align 8
  %5 = load i32, ptr %4, align 4
  %call3 = invoke noundef signext i8 @_ZL9U_FAILURE10UErrorCode(i32 noundef %5)
          to label %invoke.cont unwind label %lpad

invoke.cont:                                      ; preds = %if.end
  %tobool4 = icmp ne i8 %call3, 0
  br i1 %tobool4, label %if.then13, label %lor.lhs.false

lor.lhs.false:                                    ; preds = %invoke.cont
  %call6 = invoke noundef signext i8 @_ZNK6icu_7516LocalPointerBaseINS_17StringEnumerationEE6isNullEv(ptr noundef nonnull align 8 dereferenceable(8) %keywords)
          to label %invoke.cont5 unwind label %lpad

invoke.cont5:                                     ; preds = %lor.lhs.false
  %tobool7 = icmp ne i8 %call6, 0
  br i1 %tobool7, label %if.then13, label %lor.lhs.false8

lor.lhs.false8:                                   ; preds = %invoke.cont5
  %call10 = invoke noundef ptr @_ZNK6icu_7516LocalPointerBaseINS_17StringEnumerationEEptEv(ptr noundef nonnull align 8 dereferenceable(8) %keywords)
          to label %invoke.cont9 unwind label %lpad

invoke.cont9:                                     ; preds = %lor.lhs.false8
  %6 = load ptr, ptr %errorCode.addr, align 8
  %vtable = load ptr, ptr %call10, align 8
  %vfn = getelementptr inbounds ptr, ptr %vtable, i64 4
  %7 = load ptr, ptr %vfn, align 8
  %call12 = invoke noundef i32 %7(ptr noundef nonnull align 8 dereferenceable(116) %call10, ptr noundef nonnull align 4 dereferenceable(4) %6)
          to label %invoke.cont11 unwind label %lpad

invoke.cont11:                                    ; preds = %invoke.cont9
  %cmp = icmp eq i32 %call12, 0
  br i1 %cmp, label %if.then13, label %if.end14

if.then13:                                        ; preds = %invoke.cont11, %invoke.cont5, %invoke.cont
  store i32 1, ptr %cleanup.dest.slot, align 4
  br label %cleanup

lpad:                                             ; preds = %invoke.cont27, %if.end26, %invoke.cont17, %if.then16, %invoke.cont9, %lor.lhs.false8, %lor.lhs.false, %if.end
  %8 = landingpad { ptr, i32 }
          cleanup
  %9 = extractvalue { ptr, i32 } %8, 0
  store ptr %9, ptr %exn.slot, align 8
  %10 = extractvalue { ptr, i32 } %8, 1
  store i32 %10, ptr %ehselector.slot, align 4
  call void @_ZN6icu_7512LocalPointerINS_17StringEnumerationEED2Ev(ptr noundef nonnull align 8 dereferenceable(8) %keywords) #9
  br label %eh.resume

if.end14:                                         ; preds = %invoke.cont11
  %extensions_ = getelementptr inbounds %"class.icu_75::LocaleBuilder", ptr %this1, i32 0, i32 6
  %11 = load ptr, ptr %extensions_, align 8
  %cmp15 = icmp eq ptr %11, null
  br i1 %cmp15, label %if.then16, label %if.end26

if.then16:                                        ; preds = %if.end14
  %call18 = invoke noundef nonnull align 8 dereferenceable(217) ptr @_ZN6icu_756Locale7getRootEv()
          to label %invoke.cont17 unwind label %lpad

invoke.cont17:                                    ; preds = %if.then16
  %call20 = invoke noundef ptr @_ZNK6icu_756Locale5cloneEv(ptr noundef nonnull align 8 dereferenceable(217) %call18)
          to label %invoke.cont19 unwind label %lpad

invoke.cont19:                                    ; preds = %invoke.cont17
  %extensions_21 = getelementptr inbounds %"class.icu_75::LocaleBuilder", ptr %this1, i32 0, i32 6
  store ptr %call20, ptr %extensions_21, align 8
  %extensions_22 = getelementptr inbounds %"class.icu_75::LocaleBuilder", ptr %this1, i32 0, i32 6
  %12 = load ptr, ptr %extensions_22, align 8
  %cmp23 = icmp eq ptr %12, null
  br i1 %cmp23, label %if.then24, label %if.end25

if.then24:                                        ; preds = %invoke.cont19
  %status_ = getelementptr inbounds %"class.icu_75::LocaleBuilder", ptr %this1, i32 0, i32 1
  store i32 7, ptr %status_, align 8
  store i32 1, ptr %cleanup.dest.slot, align 4
  br label %cleanup

if.end25:                                         ; preds = %invoke.cont19
  br label %if.end26

if.end26:                                         ; preds = %if.end25, %if.end14
  %13 = load ptr, ptr %src.addr, align 8
  %call28 = invoke noundef ptr @_ZNK6icu_7516LocalPointerBaseINS_17StringEnumerationEE8getAliasEv(ptr noundef nonnull align 8 dereferenceable(8) %keywords)
          to label %invoke.cont27 unwind label %lpad

invoke.cont27:                                    ; preds = %if.end26
  %extensions_29 = getelementptr inbounds %"class.icu_75::LocaleBuilder", ptr %this1, i32 0, i32 6
  %14 = load ptr, ptr %extensions_29, align 8
  %15 = load ptr, ptr %errorCode.addr, align 8
  invoke void @_ZN6icu_75L15_copyExtensionsERKNS_6LocaleEPNS_17StringEnumerationERS0_bR10UErrorCode(ptr noundef nonnull align 8 dereferenceable(217) %13, ptr noundef %call28, ptr noundef nonnull align 8 dereferenceable(217) %14, i1 noundef zeroext false, ptr noundef nonnull align 4 dereferenceable(4) %15)
          to label %invoke.cont30 unwind label %lpad

invoke.cont30:                                    ; preds = %invoke.cont27
  store i32 0, ptr %cleanup.dest.slot, align 4
  br label %cleanup

cleanup:                                          ; preds = %invoke.cont30, %if.then24, %if.then13
  call void @_ZN6icu_7512LocalPointerINS_17StringEnumerationEED2Ev(ptr noundef nonnull align 8 dereferenceable(8) %keywords) #9
  %cleanup.dest = load i32, ptr %cleanup.dest.slot, align 4
  switch i32 %cleanup.dest, label %unreachable [
    i32 0, label %cleanup.cont
    i32 1, label %cleanup.cont
  ]

cleanup.cont:                                     ; preds = %cleanup, %cleanup, %if.then
  ret void

eh.resume:                                        ; preds = %lpad
  %exn = load ptr, ptr %exn.slot, align 8
  %sel = load i32, ptr %ehselector.slot, align 4
  %lpad.val = insertvalue { ptr, i32 } poison, ptr %exn, 0
  %lpad.val31 = insertvalue { ptr, i32 } %lpad.val, i32 %sel, 1
  resume { ptr, i32 } %lpad.val31

unreachable:                                      ; preds = %cleanup
  unreachable
}