; Function Attrs: mustprogress uwtable
define void @_ZN6icu_7513LocaleBuilder18copyExtensionsFromERKNS_6LocaleER10UErrorCode(ptr nocapture noundef nonnull align 8 dereferenceable(48) %this, ptr noundef nonnull align 8 dereferenceable(217) %src, ptr noundef nonnull align 4 dereferenceable(4) %errorCode) local_unnamed_addr #1 align 2 personality ptr @__gxx_personality_v0 {
entry:
  %0 = load i32, ptr %errorCode, align 4
  %cmp.i = icmp slt i32 %0, 1
  br i1 %cmp.i, label %if.end, label %cleanup.cont

if.end:                                           ; preds = %entry
  %call2 = tail call noundef ptr @_ZNK6icu_756Locale14createKeywordsER10UErrorCode(ptr noundef nonnull align 8 dereferenceable(217) %src, ptr noundef nonnull align 4 dereferenceable(4) %errorCode)
  %1 = load i32, ptr %errorCode, align 4
  %cmp.i6 = icmp sgt i32 %1, 0
  %cmp.i8.not = icmp eq ptr %call2, null
  %or.cond = or i1 %cmp.i8.not, %cmp.i6
  br i1 %or.cond, label %cleanup, label %lor.lhs.false8

lor.lhs.false8:                                   ; preds = %if.end
  %vtable = load ptr, ptr %call2, align 8
  %vfn = getelementptr inbounds i8, ptr %vtable, i64 32
  %2 = load ptr, ptr %vfn, align 8
  %call12 = invoke noundef i32 %2(ptr noundef nonnull align 8 dereferenceable(116) %call2, ptr noundef nonnull align 4 dereferenceable(4) %errorCode)
          to label %invoke.cont11 unwind label %_ZN6icu_7512LocalPointerINS_17StringEnumerationEED2Ev.exit

invoke.cont11:                                    ; preds = %lor.lhs.false8
  %cmp = icmp eq i32 %call12, 0
  br i1 %cmp, label %delete.notnull.i11, label %if.end14

_ZN6icu_7512LocalPointerINS_17StringEnumerationEED2Ev.exit: ; preds = %if.end26, %invoke.cont17, %if.then16, %lor.lhs.false8
  %3 = landingpad { ptr, i32 }
          cleanup
  %vtable.i = load ptr, ptr %call2, align 8
  %vfn.i = getelementptr inbounds i8, ptr %vtable.i, i64 8
  %4 = load ptr, ptr %vfn.i, align 8
  tail call void %4(ptr noundef nonnull align 8 dereferenceable(116) %call2) #13
  resume { ptr, i32 } %3

if.end14:                                         ; preds = %invoke.cont11
  %extensions_ = getelementptr inbounds i8, ptr %this, i64 40
  %5 = load ptr, ptr %extensions_, align 8
  %cmp15 = icmp eq ptr %5, null
  br i1 %cmp15, label %if.then16, label %if.end26

if.then16:                                        ; preds = %if.end14
  %call18 = invoke noundef nonnull align 8 dereferenceable(217) ptr @_ZN6icu_756Locale7getRootEv()
          to label %invoke.cont17 unwind label %_ZN6icu_7512LocalPointerINS_17StringEnumerationEED2Ev.exit

invoke.cont17:                                    ; preds = %if.then16
  %call20 = invoke noundef ptr @_ZNK6icu_756Locale5cloneEv(ptr noundef nonnull align 8 dereferenceable(217) %call18)
          to label %invoke.cont19 unwind label %_ZN6icu_7512LocalPointerINS_17StringEnumerationEED2Ev.exit

invoke.cont19:                                    ; preds = %invoke.cont17
  store ptr %call20, ptr %extensions_, align 8
  %cmp23 = icmp eq ptr %call20, null
  br i1 %cmp23, label %if.then24, label %if.end26

if.then24:                                        ; preds = %invoke.cont19
  %status_ = getelementptr inbounds i8, ptr %this, i64 8
  store i32 7, ptr %status_, align 8
  br label %delete.notnull.i11

if.end26:                                         ; preds = %invoke.cont19, %if.end14
  %6 = phi ptr [ %call20, %invoke.cont19 ], [ %5, %if.end14 ]
  invoke fastcc void @_ZN6icu_75L15_copyExtensionsERKNS_6LocaleEPNS_17StringEnumerationERS0_bR10UErrorCode(ptr noundef nonnull align 8 dereferenceable(217) %src, ptr noundef nonnull %call2, ptr noundef nonnull align 8 dereferenceable(217) %6, i1 noundef zeroext false, ptr noundef nonnull align 4 dereferenceable(4) %errorCode)
          to label %delete.notnull.i11 unwind label %_ZN6icu_7512LocalPointerINS_17StringEnumerationEED2Ev.exit

cleanup:                                          ; preds = %if.end
  br i1 %cmp.i8.not, label %cleanup.cont, label %delete.notnull.i11

delete.notnull.i11:                               ; preds = %if.then24, %invoke.cont11, %if.end26, %cleanup
  %vtable.i12 = load ptr, ptr %call2, align 8
  %vfn.i13 = getelementptr inbounds i8, ptr %vtable.i12, i64 8
  %7 = load ptr, ptr %vfn.i13, align 8
  tail call void %7(ptr noundef nonnull align 8 dereferenceable(116) %call2) #13
  br label %cleanup.cont

cleanup.cont:                                     ; preds = %delete.notnull.i11, %cleanup, %entry
  ret void
}